; Function Attrs: mustprogress nounwind uwtable
define hidden void @_ZN4LIEF5MachO14SegmentCommand14content_resizeEm(ptr noundef nonnull align 8 dereferenceable(216) %0, i64 noundef %1) local_unnamed_addr #0 align 2 {
  %3 = alloca %"class.std::function", align 8
  call void @llvm.lifetime.start.p0(i64 32, ptr nonnull %3) #24
  %4 = getelementptr inbounds nuw i8, ptr %3, i64 16
  %5 = getelementptr inbounds nuw i8, ptr %3, i64 24
  %6 = getelementptr inbounds nuw i8, ptr %3, i64 8
  store i64 0, ptr %6, align 8
  store i64 %1, ptr %3, align 8, !tbaa !53
  store ptr @"_ZNSt17_Function_handlerIFvRSt6vectorIhSaIhEEEZN4LIEF5MachO14SegmentCommand14content_resizeEmE3$_0E9_M_invokeERKSt9_Any_dataS3_", ptr %5, align 8, !tbaa !102
  store ptr @"_ZNSt17_Function_handlerIFvRSt6vectorIhSaIhEEEZN4LIEF5MachO14SegmentCommand14content_resizeEmE3$_0E10_M_managerERSt9_Any_dataRKSA_St18_Manager_operation", ptr %4, align 8, !tbaa !105
  %7 = load ptr, ptr %0, align 8, !tbaa !17
  %8 = getelementptr inbounds nuw i8, ptr %7, i64 56
  %9 = load ptr, ptr %8, align 8
  call void %9(ptr noundef nonnull align 8 dereferenceable(216) %0, ptr noundef nonnull align 8 dereferenceable(32) %3) #24
  %10 = load ptr, ptr %4, align 8, !tbaa !105
  %.not.i = icmp eq ptr %10, null
  br i1 %.not.i, label %_ZNSt14_Function_baseD2Ev.exit, label %11

11:                                               ; preds = %2
  %12 = call noundef zeroext i1 %10(ptr noundef nonnull align 8 dereferenceable(32) %3, ptr noundef nonnull align 8 dereferenceable(32) %3, i32 noundef 3) #24
  br label %_ZNSt14_Function_baseD2Ev.exit

_ZNSt14_Function_baseD2Ev.exit:                   ; preds = %2, %11
  call void @llvm.lifetime.end.p0(i64 32, ptr nonnull %3) #24
  ret void
}